; Function Attrs: mustprogress nounwind uwtable
define hidden void @_ZN3vas2ot7Tracker5ResetEv(ptr nocapture noundef nonnull align 8 dereferenceable(72) %0) local_unnamed_addr #2 align 2 personality ptr @__gxx_personality_v0 {
  %2 = getelementptr inbounds i8, ptr %0, i64 16
  store i32 0, ptr %2, align 8
  %3 = getelementptr inbounds i8, ptr %0, i64 48
  %4 = load ptr, ptr %3, align 8
  %5 = getelementptr inbounds i8, ptr %0, i64 56
  %6 = load ptr, ptr %5, align 8
  %.not.i.i = icmp eq ptr %6, %4
  br i1 %.not.i.i, label %_ZNSt6vectorISt10shared_ptrIN3vas2ot8TrackletEESaIS4_EE5clearEv.exit, label %.lr.ph.i.i.i.i.i

.lr.ph.i.i.i.i.i:                                 ; preds = %1, %_ZSt8_DestroyISt10shared_ptrIN3vas2ot8TrackletEEEvPT_.exit.i.i.i.i.i
  %.05.i.i.i.i.i = phi ptr [ %43, %_ZSt8_DestroyISt10shared_ptrIN3vas2ot8TrackletEEEvPT_.exit.i.i.i.i.i ], [ %4, %1 ]
  %7 = getelementptr inbounds i8, ptr %.05.i.i.i.i.i, i64 8
  %8 = load ptr, ptr %7, align 8
  %.not.i.i.i.i.i.i.i.i.i = icmp eq ptr %8, null
  br i1 %.not.i.i.i.i.i.i.i.i.i, label %_ZSt8_DestroyISt10shared_ptrIN3vas2ot8TrackletEEEvPT_.exit.i.i.i.i.i, label %9

9:                                                ; preds = %.lr.ph.i.i.i.i.i
  %10 = getelementptr inbounds i8, ptr %8, i64 8
  %11 = load atomic i64, ptr %10 acquire, align 8
  %12 = icmp eq i64 %11, 4294967297
  %13 = trunc i64 %11 to i32
  br i1 %12, label %14, label %19

14:                                               ; preds = %9
  store i32 0, ptr %10, align 8
  %15 = getelementptr inbounds i8, ptr %8, i64 12
  store i32 0, ptr %15, align 4
  %16 = load ptr, ptr %8, align 8
  %17 = getelementptr inbounds i8, ptr %16, i64 16
  %18 = load ptr, ptr %17, align 8
  tail call void %18(ptr noundef nonnull align 8 dereferenceable(16) %8) #13
  br label %_ZNSt16_Sp_counted_baseILN9__gnu_cxx12_Lock_policyE2EE24_M_release_last_use_coldEv.exit.sink.split.i.i.i.i.i.i.i.i.i.i

19:                                               ; preds = %9
  %20 = load i8, ptr @__libc_single_threaded, align 1
  %.not.i.i.i.i.i.i.i.i.i.i = icmp eq i8 %20, 0
  br i1 %.not.i.i.i.i.i.i.i.i.i.i, label %23, label %21

21:                                               ; preds = %19
  %22 = add nsw i32 %13, -1
  store i32 %22, ptr %10, align 4
  br label %25

23:                                               ; preds = %19
  %24 = atomicrmw volatile add ptr %10, i32 -1 acq_rel, align 4
  br label %25

25:                                               ; preds = %23, %21
  %.0.i.i.i.i.i.i.i.i.i.i = phi i32 [ %13, %21 ], [ %24, %23 ]
  %26 = icmp eq i32 %.0.i.i.i.i.i.i.i.i.i.i, 1
  br i1 %26, label %27, label %_ZSt8_DestroyISt10shared_ptrIN3vas2ot8TrackletEEEvPT_.exit.i.i.i.i.i

27:                                               ; preds = %25
  %28 = load ptr, ptr %8, align 8
  %29 = getelementptr inbounds i8, ptr %28, i64 16
  %30 = load ptr, ptr %29, align 8
  tail call void %30(ptr noundef nonnull align 8 dereferenceable(16) %8) #13
  %31 = getelementptr inbounds i8, ptr %8, i64 12
  %32 = load i8, ptr @__libc_single_threaded, align 1
  %.not.i.i.i.i.i.i.i.i.i.i.i.i = icmp eq i8 %32, 0
  br i1 %.not.i.i.i.i.i.i.i.i.i.i.i.i, label %36, label %33

33:                                               ; preds = %27
  %34 = load i32, ptr %31, align 4
  %35 = add nsw i32 %34, -1
  store i32 %35, ptr %31, align 4
  br label %38

36:                                               ; preds = %27
  %37 = atomicrmw volatile add ptr %31, i32 -1 acq_rel, align 4
  br label %38

38:                                               ; preds = %36, %33
  %.0.i.i.i.i.i.i.i.i.i.i.i.i = phi i32 [ %34, %33 ], [ %37, %36 ]
  %39 = icmp eq i32 %.0.i.i.i.i.i.i.i.i.i.i.i.i, 1
  br i1 %39, label %_ZNSt16_Sp_counted_baseILN9__gnu_cxx12_Lock_policyE2EE24_M_release_last_use_coldEv.exit.sink.split.i.i.i.i.i.i.i.i.i.i, label %_ZSt8_DestroyISt10shared_ptrIN3vas2ot8TrackletEEEvPT_.exit.i.i.i.i.i

_ZNSt16_Sp_counted_baseILN9__gnu_cxx12_Lock_policyE2EE24_M_release_last_use_coldEv.exit.sink.split.i.i.i.i.i.i.i.i.i.i: ; preds = %38, %14
  %40 = load ptr, ptr %8, align 8
  %41 = getelementptr inbounds i8, ptr %40, i64 24
  %42 = load ptr, ptr %41, align 8
  tail call void %42(ptr noundef nonnull align 8 dereferenceable(16) %8) #13
  br label %_ZSt8_DestroyISt10shared_ptrIN3vas2ot8TrackletEEEvPT_.exit.i.i.i.i.i

_ZSt8_DestroyISt10shared_ptrIN3vas2ot8TrackletEEEvPT_.exit.i.i.i.i.i: ; preds = %_ZNSt16_Sp_counted_baseILN9__gnu_cxx12_Lock_policyE2EE24_M_release_last_use_coldEv.exit.sink.split.i.i.i.i.i.i.i.i.i.i, %38, %25, %.lr.ph.i.i.i.i.i
  %43 = getelementptr inbounds i8, ptr %.05.i.i.i.i.i, i64 16
  %.not.i.i.i.i.i = icmp eq ptr %43, %6
  br i1 %.not.i.i.i.i.i, label %_ZSt8_DestroyIPSt10shared_ptrIN3vas2ot8TrackletEES4_EvT_S6_RSaIT0_E.exit.i.i, label %.lr.ph.i.i.i.i.i, !llvm.loop !4

_ZSt8_DestroyIPSt10shared_ptrIN3vas2ot8TrackletEES4_EvT_S6_RSaIT0_E.exit.i.i: ; preds = %_ZSt8_DestroyISt10shared_ptrIN3vas2ot8TrackletEEEvPT_.exit.i.i.i.i.i
  store ptr %4, ptr %5, align 8
  br label %_ZNSt6vectorISt10shared_ptrIN3vas2ot8TrackletEESaIS4_EE5clearEv.exit

_ZNSt6vectorISt10shared_ptrIN3vas2ot8TrackletEESaIS4_EE5clearEv.exit: ; preds = %1, %_ZSt8_DestroyIPSt10shared_ptrIN3vas2ot8TrackletEES4_EvT_S6_RSaIT0_E.exit.i.i
  ret void
}